; Function Attrs: nounwind uwtable
define ptr @l_Lean_Meta_SimpCongrTheorems_get___boxed(ptr noundef %0, ptr noundef %1) local_unnamed_addr #1 {
  %3 = tail call ptr @l_Lean_SMap_find_x3f___at_Lean_Meta_SimpCongrTheorems_get___spec__1(ptr noundef %0, ptr noundef %1)
  %4 = ptrtoint ptr %3 to i64
  %5 = and i64 %4, 1
  %.not.i9.i = icmp eq i64 %5, 0
  br i1 %.not.i9.i, label %9, label %6

6:                                                ; preds = %2
  %7 = lshr i64 %4, 1
  %8 = trunc i64 %7 to i32
  br label %lean_obj_tag.exit.i

9:                                                ; preds = %2
  %10 = getelementptr i8, ptr %3, i64 4
  %.val.i.i = load i32, ptr %10, align 4
  %11 = lshr i32 %.val.i.i, 24
  br label %lean_obj_tag.exit.i

lean_obj_tag.exit.i:                              ; preds = %9, %6
  %.0.i.i = phi i32 [ %8, %6 ], [ %11, %9 ]
  %12 = icmp eq i32 %.0.i.i, 0
  br i1 %12, label %l_Lean_Meta_SimpCongrTheorems_get.exit, label %13

13:                                               ; preds = %lean_obj_tag.exit.i
  %14 = getelementptr inbounds nuw i8, ptr %3, i64 8
  %15 = load ptr, ptr %14, align 8, !tbaa !9
  %16 = ptrtoint ptr %15 to i64
  %17 = and i64 %16, 1
  %.not.i4 = icmp eq i64 %17, 0
  br i1 %.not.i4, label %18, label %lean_inc.exit.i

18:                                               ; preds = %13
  %.val.i10.i = load i32, ptr %15, align 4, !tbaa !4
  %19 = icmp sgt i32 %.val.i10.i, 0
  br i1 %19, label %20, label %22, !prof !11

20:                                               ; preds = %18
  %21 = add nuw i32 %.val.i10.i, 1
  store i32 %21, ptr %15, align 4, !tbaa !4
  br label %lean_inc.exit.i

22:                                               ; preds = %18
  %.not.i11.i = icmp eq i32 %.val.i10.i, 0
  br i1 %.not.i11.i, label %lean_inc.exit.i, label %23

23:                                               ; preds = %22
  tail call void @lean_inc_ref_cold(ptr noundef nonnull %15) #5
  br label %lean_inc.exit.i

lean_inc.exit.i:                                  ; preds = %23, %22, %20, %13
  br i1 %.not.i9.i, label %24, label %l_Lean_Meta_SimpCongrTheorems_get.exit

24:                                               ; preds = %lean_inc.exit.i
  %25 = load i32, ptr %3, align 4, !tbaa !4
  %26 = icmp sgt i32 %25, 1
  br i1 %26, label %27, label %29, !prof !11

27:                                               ; preds = %24
  %28 = add nsw i32 %25, -1
  store i32 %28, ptr %3, align 4, !tbaa !4
  br label %l_Lean_Meta_SimpCongrTheorems_get.exit

29:                                               ; preds = %24
  %.not.i.i = icmp eq i32 %25, 0
  br i1 %.not.i.i, label %l_Lean_Meta_SimpCongrTheorems_get.exit, label %30

30:                                               ; preds = %29
  tail call void @lean_dec_ref_cold(ptr noundef nonnull %3) #5
  br label %l_Lean_Meta_SimpCongrTheorems_get.exit

l_Lean_Meta_SimpCongrTheorems_get.exit:           ; preds = %lean_obj_tag.exit.i, %lean_inc.exit.i, %27, %29, %30
  %.0.i = phi ptr [ inttoptr (i64 1 to ptr), %lean_obj_tag.exit.i ], [ %15, %30 ], [ %15, %29 ], [ %15, %27 ], [ %15, %lean_inc.exit.i ]
  %31 = ptrtoint ptr %1 to i64
  %32 = and i64 %31, 1
  %.not = icmp eq i64 %32, 0
  br i1 %.not, label %33, label %lean_dec.exit

33:                                               ; preds = %l_Lean_Meta_SimpCongrTheorems_get.exit
  %34 = load i32, ptr %1, align 4, !tbaa !4
  %35 = icmp sgt i32 %34, 1
  br i1 %35, label %36, label %38, !prof !11

36:                                               ; preds = %33
  %37 = add nsw i32 %34, -1
  store i32 %37, ptr %1, align 4, !tbaa !4
  br label %lean_dec.exit

38:                                               ; preds = %33
  %.not.i = icmp eq i32 %34, 0
  br i1 %.not.i, label %lean_dec.exit, label %39

39:                                               ; preds = %38
  tail call void @lean_dec_ref_cold(ptr noundef nonnull %1) #5
  br label %lean_dec.exit

lean_dec.exit:                                    ; preds = %39, %38, %36, %l_Lean_Meta_SimpCongrTheorems_get.exit
  ret ptr %.0.i
}